target datalayout = "e-m:e-p270:32:32-p271:32:32-p272:64:64-i64:64-i128:128-f80:128-n8:16:32:64-S128"
target triple = "x86_64-pc-linux-gnu"

%struct.txfm_param = type { i8, i8, i32, i32, i32, i8, i32 }

@tx_size_wide = internal constant [19 x i32] [i32 4, i32 8, i32 16, i32 32, i32 64, i32 4, i32 8, i32 8, i32 16, i32 16, i32 32, i32 32, i32 64, i32 4, i32 16, i32 8, i32 32, i32 16, i32 64], align 16
@tx_size_high = internal constant [19 x i32] [i32 4, i32 8, i32 16, i32 32, i32 64, i32 8, i32 4, i32 16, i32 8, i32 32, i32 16, i32 64, i32 32, i32 16, i32 4, i32 32, i32 8, i32 64, i32 16], align 16

; Function Attrs: nounwind uwtable
define hidden void @av1_inv_txfm_add_c(ptr noundef %0, ptr noundef %1, i32 noundef %2, ptr noundef %3) #0 {
  %5 = alloca ptr, align 8
  %6 = alloca ptr, align 8
  %7 = alloca i32, align 4
  %8 = alloca ptr, align 8
  %9 = alloca i8, align 1
  %10 = alloca [4096 x i16], align 32
  %11 = alloca i32, align 4
  %12 = alloca i32, align 4
  %13 = alloca i32, align 4
  %14 = alloca i32, align 4
  %15 = alloca i32, align 4
  %16 = alloca i32, align 4
  %17 = alloca i32, align 4
  store ptr %0, ptr %5, align 8
  store ptr %1, ptr %6, align 8
  store i32 %2, ptr %7, align 4
  store ptr %3, ptr %8, align 8
  %18 = load ptr, ptr %8, align 8
  %19 = getelementptr inbounds nuw %struct.txfm_param, ptr %18, i32 0, i32 1
  %20 = load i8, ptr %19, align 1
  store i8 %20, ptr %9, align 1
  store i32 64, ptr %11, align 4
  %21 = load i8, ptr %9, align 1
  %22 = zext i8 %21 to i64
  %23 = getelementptr inbounds [19 x i32], ptr @tx_size_wide, i64 0, i64 %22
  %24 = load i32, ptr %23, align 4
  store i32 %24, ptr %12, align 4
  %25 = load i8, ptr %9, align 1
  %26 = zext i8 %25 to i64
  %27 = getelementptr inbounds [19 x i32], ptr @tx_size_high, i64 0, i64 %26
  %28 = load i32, ptr %27, align 4
  store i32 %28, ptr %13, align 4
  store i32 0, ptr %14, align 4
  br label %29

29:                                               ; preds = %60, %4
  %30 = load i32, ptr %14, align 4
  %31 = load i32, ptr %13, align 4
  %32 = icmp slt i32 %30, %31
  br i1 %32, label %33, label %63

33:                                               ; preds = %29
  store i32 0, ptr %15, align 4
  br label %34

34:                                               ; preds = %56, %33
  %35 = load i32, ptr %15, align 4
  %36 = load i32, ptr %12, align 4
  %37 = icmp slt i32 %35, %36
  br i1 %37, label %38, label %59

38:                                               ; preds = %34
  %39 = load ptr, ptr %6, align 8
  %40 = load i32, ptr %14, align 4
  %41 = load i32, ptr %7, align 4
  %42 = mul nsw i32 %40, %41
  %43 = load i32, ptr %15, align 4
  %44 = add nsw i32 %42, %43
  %45 = sext i32 %44 to i64
  %46 = getelementptr inbounds i8, ptr %39, i64 %45
  %47 = load i8, ptr %46, align 1
  %48 = zext i8 %47 to i16
  %49 = load i32, ptr %14, align 4
  %50 = load i32, ptr %11, align 4
  %51 = mul nsw i32 %49, %50
  %52 = load i32, ptr %15, align 4
  %53 = add nsw i32 %51, %52
  %54 = sext i32 %53 to i64
  %55 = getelementptr inbounds [4096 x i16], ptr %10, i64 0, i64 %54
  store i16 %48, ptr %55, align 2
  br label %56

56:                                               ; preds = %38
  %57 = load i32, ptr %15, align 4
  %58 = add nsw i32 %57, 1
  store i32 %58, ptr %15, align 4
  br label %34, !llvm.loop !4

59:                                               ; preds = %34
  br label %60

60:                                               ; preds = %59
  %61 = load i32, ptr %14, align 4
  %62 = add nsw i32 %61, 1
  store i32 %62, ptr %14, align 4
  br label %29, !llvm.loop !6

63:                                               ; preds = %29
  %64 = load ptr, ptr %5, align 8
  %65 = getelementptr inbounds [4096 x i16], ptr %10, i64 0, i64 0
  %66 = ptrtoint ptr %65 to i64
  %67 = lshr i64 %66, 1
  %68 = inttoptr i64 %67 to ptr
  %69 = load i32, ptr %11, align 4
  %70 = load ptr, ptr %8, align 8
  call void @av1_highbd_inv_txfm_add_c(ptr noundef %64, ptr noundef %68, i32 noundef %69, ptr noundef %70)
  store i32 0, ptr %16, align 4
  br label %71

71:                                               ; preds = %102, %63
  %72 = load i32, ptr %16, align 4
  %73 = load i32, ptr %13, align 4
  %74 = icmp slt i32 %72, %73
  br i1 %74, label %75, label %105

75:                                               ; preds = %71
  store i32 0, ptr %17, align 4
  br label %76

76:                                               ; preds = %98, %75
  %77 = load i32, ptr %17, align 4
  %78 = load i32, ptr %12, align 4
  %79 = icmp slt i32 %77, %78
  br i1 %79, label %80, label %101

80:                                               ; preds = %76
  %81 = load i32, ptr %16, align 4
  %82 = load i32, ptr %11, align 4
  %83 = mul nsw i32 %81, %82
  %84 = load i32, ptr %17, align 4
  %85 = add nsw i32 %83, %84
  %86 = sext i32 %85 to i64
  %87 = getelementptr inbounds [4096 x i16], ptr %10, i64 0, i64 %86
  %88 = load i16, ptr %87, align 2
  %89 = trunc i16 %88 to i8
  %90 = load ptr, ptr %6, align 8
  %91 = load i32, ptr %16, align 4
  %92 = load i32, ptr %7, align 4
  %93 = mul nsw i32 %91, %92
  %94 = load i32, ptr %17, align 4
  %95 = add nsw i32 %93, %94
  %96 = sext i32 %95 to i64
  %97 = getelementptr inbounds i8, ptr %90, i64 %96
  store i8 %89, ptr %97, align 1
  br label %98

98:                                               ; preds = %80
  %99 = load i32, ptr %17, align 4
  %100 = add nsw i32 %99, 1
  store i32 %100, ptr %17, align 4
  br label %76, !llvm.loop !7

101:                                              ; preds = %76
  br label %102

102:                                              ; preds = %101
  %103 = load i32, ptr %16, align 4
  %104 = add nsw i32 %103, 1
  store i32 %104, ptr %16, align 4
  br label %71, !llvm.loop !8

105:                                              ; preds = %71
  ret void
}