; Function Attrs: nounwind uwtable
define hidden void @av1_inv_txfm_add_c(ptr noundef %0, ptr nocapture noundef %1, i32 noundef %2, ptr nocapture noundef readonly %3) local_unnamed_addr #1 {
.preheader35.us.preheader:
  %4 = alloca [4096 x i16], align 32
  %5 = getelementptr inbounds nuw i8, ptr %3, i64 1
  %6 = load i8, ptr %5, align 1
  %7 = zext i8 %6 to i64
  %8 = getelementptr inbounds [19 x i32], ptr @tx_size_wide, i64 0, i64 %7
  %9 = load i32, ptr %8, align 4
  %10 = getelementptr inbounds [19 x i32], ptr @tx_size_high, i64 0, i64 %7
  %11 = load i32, ptr %10, align 4
  %smax = tail call i32 @llvm.smax.i32(i32 %9, i32 1)
  %12 = sext i32 %2 to i64
  %smax49 = tail call i32 @llvm.smax.i32(i32 %11, i32 1)
  %wide.trip.count50 = zext nneg i32 %smax49 to i64
  %wide.trip.count = zext nneg i32 %smax to i64
  br label %.preheader35.us

.preheader35.us:                                  ; preds = %.preheader35.us.preheader, %._crit_edge.us
  %indvars.iv46 = phi i64 [ 0, %.preheader35.us.preheader ], [ %indvars.iv.next47, %._crit_edge.us ]
  %13 = mul nsw i64 %indvars.iv46, %12
  %14 = shl nsw i64 %indvars.iv46, 6
  %invariant.gep = getelementptr i8, ptr %1, i64 %13
  br label %15

15:                                               ; preds = %.preheader35.us, %15
  %indvars.iv = phi i64 [ 0, %.preheader35.us ], [ %indvars.iv.next, %15 ]
  %gep = getelementptr i8, ptr %invariant.gep, i64 %indvars.iv
  %16 = load i8, ptr %gep, align 1
  %17 = zext i8 %16 to i16
  %18 = add nuw nsw i64 %indvars.iv, %14
  %19 = getelementptr inbounds [4096 x i16], ptr %4, i64 0, i64 %18
  store i16 %17, ptr %19, align 2
  %indvars.iv.next = add nuw nsw i64 %indvars.iv, 1
  %exitcond.not = icmp eq i64 %indvars.iv.next, %wide.trip.count
  br i1 %exitcond.not, label %._crit_edge.us, label %15, !llvm.loop !4

._crit_edge.us:                                   ; preds = %15
  %indvars.iv.next47 = add nuw nsw i64 %indvars.iv46, 1
  %exitcond51.not = icmp eq i64 %indvars.iv.next47, %wide.trip.count50
  br i1 %exitcond51.not, label %.preheader.us.preheader, label %.preheader35.us, !llvm.loop !6

.preheader.us.preheader:                          ; preds = %._crit_edge.us
  %20 = ptrtoint ptr %4 to i64
  %21 = lshr exact i64 %20, 1
  %22 = inttoptr i64 %21 to ptr
  call void @av1_highbd_inv_txfm_add_c(ptr noundef %0, ptr noundef nonnull %22, i32 noundef 64, ptr noundef %3)
  %smax55 = call i32 @llvm.smax.i32(i32 %9, i32 1)
  %23 = sext i32 %2 to i64
  %smax61 = call i32 @llvm.smax.i32(i32 %11, i32 1)
  %wide.trip.count62 = zext nneg i32 %smax61 to i64
  %wide.trip.count56 = zext nneg i32 %smax55 to i64
  br label %.preheader.us

.preheader.us:                                    ; preds = %.preheader.us.preheader, %._crit_edge.us42
  %indvars.iv58 = phi i64 [ 0, %.preheader.us.preheader ], [ %indvars.iv.next59, %._crit_edge.us42 ]
  %24 = shl nsw i64 %indvars.iv58, 6
  %25 = mul nsw i64 %indvars.iv58, %23
  %invariant.gep64 = getelementptr i8, ptr %1, i64 %25
  br label %26

26:                                               ; preds = %.preheader.us, %26
  %indvars.iv52 = phi i64 [ 0, %.preheader.us ], [ %indvars.iv.next53, %26 ]
  %27 = add nuw nsw i64 %indvars.iv52, %24
  %28 = getelementptr inbounds [4096 x i16], ptr %4, i64 0, i64 %27
  %29 = load i16, ptr %28, align 2
  %30 = trunc i16 %29 to i8
  %gep65 = getelementptr i8, ptr %invariant.gep64, i64 %indvars.iv52
  store i8 %30, ptr %gep65, align 1
  %indvars.iv.next53 = add nuw nsw i64 %indvars.iv52, 1
  %exitcond57.not = icmp eq i64 %indvars.iv.next53, %wide.trip.count56
  br i1 %exitcond57.not, label %._crit_edge.us42, label %26, !llvm.loop !7

._crit_edge.us42:                                 ; preds = %26
  %indvars.iv.next59 = add nuw nsw i64 %indvars.iv58, 1
  %exitcond63.not = icmp eq i64 %indvars.iv.next59, %wide.trip.count62
  br i1 %exitcond63.not, label %._crit_edge41, label %.preheader.us, !llvm.loop !8

._crit_edge41:                                    ; preds = %._crit_edge.us42
  ret void
}